target datalayout = "e-m:e-p270:32:32-p271:32:32-p272:64:64-i64:64-i128:128-f80:128-n8:16:32:64-S128"
target triple = "x86_64-pc-linux-gnu"

%struct.WebPIDecoder = type { i32, %struct.WebPDecParams, i32, ptr, %struct.VP8Io, %struct.MemBuffer, %struct.WebPDecBuffer, ptr, i64, i32 }
%struct.WebPDecParams = type { ptr, ptr, ptr, ptr, i32, ptr, ptr, ptr, ptr, ptr, ptr, ptr, ptr, ptr }
%struct.VP8Io = type { i32, i32, i32, i32, i32, ptr, ptr, ptr, i32, i32, ptr, ptr, ptr, ptr, i32, i64, ptr, i32, i32, i32, i32, i32, i32, i32, i32, i32, ptr }
%struct.MemBuffer = type { i32, i64, i64, i64, ptr, i64, ptr }
%struct.WebPDecBuffer = type { i32, i32, i32, i32, %union.anon, [4 x i32], ptr }
%union.anon = type { %struct.WebPYUVABuffer }
%struct.WebPYUVABuffer = type { ptr, ptr, ptr, ptr, i32, i32, i32, i32, i64, i64, i64, i64 }
%struct.WebPBitstreamFeatures = type { i32, i32, i32, i32, i32, [5 x i32] }
%struct.WebPDecoderConfig = type { %struct.WebPBitstreamFeatures, %struct.WebPDecBuffer, %struct.WebPDecoderOptions }
%struct.WebPDecoderOptions = type { i32, i32, i32, i32, i32, i32, i32, i32, i32, i32, i32, i32, i32, i32, [5 x i32] }

; Function Attrs: inlinehint nounwind uwtable
define internal i32 @WebPGetFeatures(ptr noundef %0, i64 noundef %1, ptr noundef %2) #3 {
  %4 = alloca ptr, align 8
  %5 = alloca i64, align 8
  %6 = alloca ptr, align 8
  store ptr %0, ptr %4, align 8, !tbaa !28
  store i64 %1, ptr %5, align 8, !tbaa !29
  store ptr %2, ptr %6, align 8, !tbaa !8
  %7 = load ptr, ptr %4, align 8, !tbaa !28
  %8 = load i64, ptr %5, align 8, !tbaa !29
  %9 = load ptr, ptr %6, align 8, !tbaa !8
  %10 = call i32 @WebPGetFeaturesInternal(ptr noundef %7, i64 noundef %8, ptr noundef %9, i32 noundef 528)
  ret i32 %10
}

; Function Attrs: nounwind uwtable
define ptr @WebPIDecode(ptr noundef %0, i64 noundef %1, ptr noundef %2) #0 {
  %4 = alloca ptr, align 8
  %5 = alloca ptr, align 8
  %6 = alloca i64, align 8
  %7 = alloca ptr, align 8
  %8 = alloca ptr, align 8
  %9 = alloca %struct.WebPBitstreamFeatures, align 4
  %10 = alloca ptr, align 8
  %11 = alloca i32, align 4
  store ptr %0, ptr %5, align 8, !tbaa !28
  store i64 %1, ptr %6, align 8, !tbaa !29
  store ptr %2, ptr %7, align 8, !tbaa !30
  call void @llvm.lifetime.start.p0(i64 8, ptr %8) #6
  call void @llvm.lifetime.start.p0(i64 40, ptr %9) #6
  call void @llvm.lifetime.start.p0(i64 8, ptr %10) #6
  %12 = load ptr, ptr %7, align 8, !tbaa !30
  %13 = icmp eq ptr %12, null
  br i1 %13, label %14, label %15

14:                                               ; preds = %3
  br label %18

15:                                               ; preds = %3
  %16 = load ptr, ptr %7, align 8, !tbaa !30
  %17 = getelementptr inbounds nuw %struct.WebPDecoderConfig, ptr %16, i32 0, i32 0
  br label %18

18:                                               ; preds = %15, %14
  %19 = phi ptr [ %9, %14 ], [ %17, %15 ]
  store ptr %19, ptr %10, align 8, !tbaa !8
  call void @llvm.memset.p0.i64(ptr align 4 %9, i8 0, i64 40, i1 false)
  %20 = load ptr, ptr %5, align 8, !tbaa !28
  %21 = icmp ne ptr %20, null
  br i1 %21, label %22, label %33

22:                                               ; preds = %18
  %23 = load i64, ptr %6, align 8, !tbaa !29
  %24 = icmp ugt i64 %23, 0
  br i1 %24, label %25, label %33

25:                                               ; preds = %22
  %26 = load ptr, ptr %5, align 8, !tbaa !28
  %27 = load i64, ptr %6, align 8, !tbaa !29
  %28 = load ptr, ptr %10, align 8, !tbaa !8
  %29 = call i32 @WebPGetFeatures(ptr noundef %26, i64 noundef %27, ptr noundef %28)
  %30 = icmp ne i32 %29, 0
  br i1 %30, label %31, label %32

31:                                               ; preds = %25
  store ptr null, ptr %4, align 8
  store i32 1, ptr %11, align 4
  br label %60

32:                                               ; preds = %25
  br label %33

33:                                               ; preds = %32, %22, %18
  %34 = load ptr, ptr %7, align 8, !tbaa !30
  %35 = icmp ne ptr %34, null
  br i1 %35, label %36, label %41

36:                                               ; preds = %33
  %37 = load ptr, ptr %7, align 8, !tbaa !30
  %38 = getelementptr inbounds nuw %struct.WebPDecoderConfig, ptr %37, i32 0, i32 1
  %39 = load ptr, ptr %10, align 8, !tbaa !8
  %40 = call ptr @NewDecoder(ptr noundef %38, ptr noundef %39)
  br label %44

41:                                               ; preds = %33
  %42 = load ptr, ptr %10, align 8, !tbaa !8
  %43 = call ptr @NewDecoder(ptr noundef null, ptr noundef %42)
  br label %44

44:                                               ; preds = %41, %36
  %45 = phi ptr [ %40, %36 ], [ %43, %41 ]
  store ptr %45, ptr %8, align 8, !tbaa !10
  %46 = load ptr, ptr %8, align 8, !tbaa !10
  %47 = icmp eq ptr %46, null
  br i1 %47, label %48, label %49

48:                                               ; preds = %44
  store ptr null, ptr %4, align 8
  store i32 1, ptr %11, align 4
  br label %60

49:                                               ; preds = %44
  %50 = load ptr, ptr %7, align 8, !tbaa !30
  %51 = icmp ne ptr %50, null
  br i1 %51, label %52, label %58

52:                                               ; preds = %49
  %53 = load ptr, ptr %7, align 8, !tbaa !30
  %54 = getelementptr inbounds nuw %struct.WebPDecoderConfig, ptr %53, i32 0, i32 2
  %55 = load ptr, ptr %8, align 8, !tbaa !10
  %56 = getelementptr inbounds nuw %struct.WebPIDecoder, ptr %55, i32 0, i32 1
  %57 = getelementptr inbounds nuw %struct.WebPDecParams, ptr %56, i32 0, i32 5
  store ptr %54, ptr %57, align 8, !tbaa !32
  br label %58

58:                                               ; preds = %52, %49
  %59 = load ptr, ptr %8, align 8, !tbaa !10
  store ptr %59, ptr %4, align 8
  store i32 1, ptr %11, align 4
  br label %60

60:                                               ; preds = %58, %48, %31
  call void @llvm.lifetime.end.p0(i64 8, ptr %10) #6
  call void @llvm.lifetime.end.p0(i64 40, ptr %9) #6
  call void @llvm.lifetime.end.p0(i64 8, ptr %8) #6
  %61 = load ptr, ptr %4, align 8
  ret ptr %61
}