; Function Attrs: nounwind uwtable
define ptr @WebPIDecode(ptr noundef %0, i64 noundef %1, ptr noundef %2) local_unnamed_addr #0 {
  %4 = alloca %struct.WebPBitstreamFeatures, align 4
  call void @llvm.lifetime.start.p0(i64 40, ptr nonnull %4) #7
  %5 = icmp eq ptr %2, null
  call void @llvm.memset.p0.i64(ptr noundef nonnull align 4 dereferenceable(40) %4, i8 0, i64 40, i1 false)
  %6 = icmp ne ptr %0, null
  %7 = icmp ne i64 %1, 0
  %or.cond = and i1 %6, %7
  br i1 %or.cond, label %8, label %11

8:                                                ; preds = %3
  %9 = select i1 %5, ptr %4, ptr %2
  %10 = call i32 @WebPGetFeaturesInternal(ptr noundef nonnull %0, i64 noundef range(i64 1, 0) %1, ptr noundef nonnull %9, i32 noundef 528) #7
  %.not = icmp eq i32 %10, 0
  br i1 %.not, label %11, label %20

11:                                               ; preds = %8, %3
  br i1 %5, label %.thread, label %13

.thread:                                          ; preds = %11
  %12 = call fastcc ptr @NewDecoder(ptr noundef null, ptr noundef nonnull %4)
  br label %20

13:                                               ; preds = %11
  %14 = getelementptr inbounds nuw i8, ptr %2, i64 40
  %15 = call fastcc ptr @NewDecoder(ptr noundef nonnull %14, ptr noundef nonnull %2)
  %16 = icmp eq ptr %15, null
  br i1 %16, label %20, label %17

17:                                               ; preds = %13
  %18 = getelementptr inbounds nuw i8, ptr %2, i64 160
  %19 = getelementptr inbounds nuw i8, ptr %15, i64 48
  store ptr %18, ptr %19, align 8, !tbaa !24
  br label %20

20:                                               ; preds = %.thread, %13, %17, %8
  %.0 = phi ptr [ null, %8 ], [ null, %13 ], [ %15, %17 ], [ %12, %.thread ]
  call void @llvm.lifetime.end.p0(i64 40, ptr nonnull %4) #7
  ret ptr %.0
}